target datalayout = "e-m:e-p270:32:32-p271:32:32-p272:64:64-i64:64-i128:128-f80:128-n8:16:32:64-S128"
target triple = "x86_64-pc-linux-gnu"

%struct.AVFormatContext = type { ptr, ptr, ptr, ptr, ptr, i32, i32, ptr, i32, ptr, i32, ptr, ptr, i64, i64, i64, i32, i32, i32, i64, i64, ptr, i32, i32, ptr, i32, i32, i32, i32, ptr, i64, i32, i32, %struct.AVIOInterruptCB, i32, i32, i32, i32, i64, i32, i32, i32, i32, i32, i32, i32, i32, i32, i32, i32, i32, i64, i32, i32, i32, i32, i32, ptr, ptr, ptr, ptr, i32, ptr, ptr, ptr, ptr, i32, ptr, ptr, i64, ptr, ptr, ptr, i64 }
%struct.AVIOInterruptCB = type { ptr, ptr }
%struct.IdcinDemuxContext = type { i32, i32, i32, i32, i32, i32, i32, i32, i64 }

; Function Attrs: nounwind uwtable
define internal i32 @idcin_read_seek(ptr noundef %0, i32 noundef %1, i64 noundef %2, i32 noundef %3) #0 {
  %5 = alloca i32, align 4
  %6 = alloca ptr, align 8
  %7 = alloca i32, align 4
  %8 = alloca i64, align 8
  %9 = alloca i32, align 4
  %10 = alloca ptr, align 8
  %11 = alloca i64, align 8
  %12 = alloca i32, align 4
  store ptr %0, ptr %6, align 8, !tbaa !16
  store i32 %1, ptr %7, align 4, !tbaa !15
  store i64 %2, ptr %8, align 8, !tbaa !81
  store i32 %3, ptr %9, align 4, !tbaa !15
  call void @llvm.lifetime.start.p0(i64 8, ptr %10) #5
  %13 = load ptr, ptr %6, align 8, !tbaa !16
  %14 = getelementptr inbounds nuw %struct.AVFormatContext, ptr %13, i32 0, i32 3
  %15 = load ptr, ptr %14, align 8, !tbaa !34
  store ptr %15, ptr %10, align 8, !tbaa !35
  %16 = load ptr, ptr %10, align 8, !tbaa !35
  %17 = getelementptr inbounds nuw %struct.IdcinDemuxContext, ptr %16, i32 0, i32 8
  %18 = load i64, ptr %17, align 8, !tbaa !71
  %19 = icmp sgt i64 %18, 0
  br i1 %19, label %20, label %49

20:                                               ; preds = %4
  call void @llvm.lifetime.start.p0(i64 8, ptr %11) #5
  %21 = load ptr, ptr %6, align 8, !tbaa !16
  %22 = getelementptr inbounds nuw %struct.AVFormatContext, ptr %21, i32 0, i32 4
  %23 = load ptr, ptr %22, align 8, !tbaa !18
  %24 = load ptr, ptr %10, align 8, !tbaa !35
  %25 = getelementptr inbounds nuw %struct.IdcinDemuxContext, ptr %24, i32 0, i32 8
  %26 = load i64, ptr %25, align 8, !tbaa !71
  %27 = call i64 @avio_seek(ptr noundef %23, i64 noundef %26, i32 noundef 0)
  store i64 %27, ptr %11, align 8, !tbaa !81
  %28 = load i64, ptr %11, align 8, !tbaa !81
  %29 = icmp slt i64 %28, 0
  br i1 %29, label %30, label %33

30:                                               ; preds = %20
  %31 = load i64, ptr %11, align 8, !tbaa !81
  %32 = trunc i64 %31 to i32
  store i32 %32, ptr %5, align 4
  store i32 1, ptr %12, align 4
  br label %48

33:                                               ; preds = %20
  %34 = load ptr, ptr %6, align 8, !tbaa !16
  %35 = load ptr, ptr %6, align 8, !tbaa !16
  %36 = getelementptr inbounds nuw %struct.AVFormatContext, ptr %35, i32 0, i32 7
  %37 = load ptr, ptr %36, align 8, !tbaa !82
  %38 = load ptr, ptr %10, align 8, !tbaa !35
  %39 = getelementptr inbounds nuw %struct.IdcinDemuxContext, ptr %38, i32 0, i32 0
  %40 = load i32, ptr %39, align 8, !tbaa !52
  %41 = sext i32 %40 to i64
  %42 = getelementptr inbounds ptr, ptr %37, i64 %41
  %43 = load ptr, ptr %42, align 8, !tbaa !42
  call void @avpriv_update_cur_dts(ptr noundef %34, ptr noundef %43, i64 noundef 0)
  %44 = load ptr, ptr %10, align 8, !tbaa !35
  %45 = getelementptr inbounds nuw %struct.IdcinDemuxContext, ptr %44, i32 0, i32 6
  store i32 1, ptr %45, align 8, !tbaa !70
  %46 = load ptr, ptr %10, align 8, !tbaa !35
  %47 = getelementptr inbounds nuw %struct.IdcinDemuxContext, ptr %46, i32 0, i32 5
  store i32 0, ptr %47, align 4, !tbaa !69
  store i32 0, ptr %5, align 4
  store i32 1, ptr %12, align 4
  br label %48

48:                                               ; preds = %33, %30
  call void @llvm.lifetime.end.p0(i64 8, ptr %11) #5
  br label %50

49:                                               ; preds = %4
  store i32 -1, ptr %5, align 4
  store i32 1, ptr %12, align 4
  br label %50

50:                                               ; preds = %49, %48
  call void @llvm.lifetime.end.p0(i64 8, ptr %10) #5
  %51 = load i32, ptr %5, align 4
  ret i32 %51
}