; Function Attrs: nounwind uwtable
define internal i32 @idcin_read_seek(ptr noundef %0, i32 %1, i64 %2, i32 %3) #1 {
  %5 = getelementptr inbounds nuw i8, ptr %0, i64 24
  %6 = load ptr, ptr %5, align 8, !tbaa !28
  %7 = getelementptr inbounds nuw i8, ptr %6, i64 32
  %8 = load i64, ptr %7, align 8, !tbaa !61
  %9 = icmp sgt i64 %8, 0
  br i1 %9, label %10, label %26

10:                                               ; preds = %4
  %11 = getelementptr inbounds nuw i8, ptr %0, i64 32
  %12 = load ptr, ptr %11, align 8, !tbaa !13
  %13 = tail call i64 @avio_seek(ptr noundef %12, i64 noundef %8, i32 noundef 0) #5
  %14 = icmp slt i64 %13, 0
  br i1 %14, label %15, label %17

15:                                               ; preds = %10
  %16 = trunc i64 %13 to i32
  br label %26

17:                                               ; preds = %10
  %18 = getelementptr inbounds nuw i8, ptr %0, i64 48
  %19 = load ptr, ptr %18, align 8, !tbaa !69
  %20 = load i32, ptr %6, align 8, !tbaa !42
  %21 = sext i32 %20 to i64
  %22 = getelementptr inbounds ptr, ptr %19, i64 %21
  %23 = load ptr, ptr %22, align 8, !tbaa !70
  tail call void @avpriv_update_cur_dts(ptr noundef nonnull %0, ptr noundef %23, i64 noundef 0) #5
  %24 = getelementptr inbounds nuw i8, ptr %6, i64 24
  store i32 1, ptr %24, align 8, !tbaa !60
  %25 = getelementptr inbounds nuw i8, ptr %6, i64 20
  store i32 0, ptr %25, align 4, !tbaa !59
  br label %26

26:                                               ; preds = %4, %15, %17
  %.1 = phi i32 [ %16, %15 ], [ 0, %17 ], [ -1, %4 ]
  ret i32 %.1
}